; Function Attrs: mustprogress uwtable
define hidden void @_ZNK2cv10MatOp_GEMM6assignERKNS_7MatExprERNS_3MatEi(ptr nocapture nonnull readnone align 8 %0, ptr noundef nonnull align 8 dereferenceable(352) %1, ptr noundef nonnull align 8 dereferenceable(96) %2, i32 noundef %3) unnamed_addr #8 align 2 personality ptr @__gxx_personality_v0 {
  %5 = alloca %"class.cv::Mat", align 8
  %6 = alloca %"class.cv::_InputArray", align 8
  %7 = alloca %"class.cv::_InputArray", align 8
  %8 = alloca %"class.cv::_InputArray", align 8
  %9 = alloca %"class.cv::_OutputArray", align 8
  %10 = alloca %"class.cv::_OutputArray", align 8
  call void @_ZN2cv3MatC1Ev(ptr noundef nonnull align 8 dereferenceable(96) %5) #21
  %11 = icmp eq i32 %3, -1
  %.sroa.gep = getelementptr inbounds i8, ptr %2, i64 16
  br i1 %11, label %17, label %12

12:                                               ; preds = %4
  %.sroa.gep27 = getelementptr inbounds i8, ptr %5, i64 16
  %13 = getelementptr inbounds i8, ptr %1, i64 16
  %14 = load i32, ptr %13, align 8
  %15 = and i32 %14, 4095
  %16 = icmp eq i32 %15, %3
  br i1 %16, label %17, label %18

17:                                               ; preds = %12, %4
  br label %18

18:                                               ; preds = %12, %17
  %.sroa.phi = phi ptr [ %.sroa.gep, %17 ], [ %.sroa.gep27, %12 ]
  %19 = phi ptr [ %2, %17 ], [ %5, %12 ]
  %20 = getelementptr inbounds i8, ptr %1, i64 16
  %21 = getelementptr inbounds i8, ptr %6, i64 16
  store i32 0, ptr %21, align 8
  %22 = getelementptr inbounds i8, ptr %6, i64 20
  store i32 0, ptr %22, align 4
  store i32 16842752, ptr %6, align 8
  %23 = getelementptr inbounds i8, ptr %6, i64 8
  store ptr %20, ptr %23, align 8
  %24 = getelementptr inbounds i8, ptr %1, i64 112
  %25 = getelementptr inbounds i8, ptr %7, i64 16
  store i32 0, ptr %25, align 8
  %26 = getelementptr inbounds i8, ptr %7, i64 20
  store i32 0, ptr %26, align 4
  store i32 16842752, ptr %7, align 8
  %27 = getelementptr inbounds i8, ptr %7, i64 8
  store ptr %24, ptr %27, align 8
  %28 = getelementptr inbounds i8, ptr %1, i64 304
  %29 = load double, ptr %28, align 8
  %30 = getelementptr inbounds i8, ptr %1, i64 208
  %31 = getelementptr inbounds i8, ptr %8, i64 16
  store i32 0, ptr %31, align 8
  %32 = getelementptr inbounds i8, ptr %8, i64 20
  store i32 0, ptr %32, align 4
  store i32 16842752, ptr %8, align 8
  %33 = getelementptr inbounds i8, ptr %8, i64 8
  store ptr %30, ptr %33, align 8
  %34 = getelementptr inbounds i8, ptr %1, i64 312
  %35 = load double, ptr %34, align 8
  %36 = getelementptr inbounds i8, ptr %9, i64 8
  %37 = getelementptr inbounds i8, ptr %9, i64 16
  store i64 0, ptr %37, align 8
  store i32 33619968, ptr %9, align 8
  store ptr %19, ptr %36, align 8
  %38 = getelementptr inbounds i8, ptr %1, i64 8
  %39 = load i32, ptr %38, align 8
  invoke void @_ZN2cv4gemmERKNS_11_InputArrayES2_dS2_dRKNS_12_OutputArrayEi(ptr noundef nonnull align 8 dereferenceable(24) %6, ptr noundef nonnull align 8 dereferenceable(24) %7, double noundef %29, ptr noundef nonnull align 8 dereferenceable(24) %8, double noundef %35, ptr noundef nonnull align 8 dereferenceable(24) %9, i32 noundef %39)
          to label %40 unwind label %46

40:                                               ; preds = %18
  %41 = load ptr, ptr %.sroa.phi, align 8
  %42 = load ptr, ptr %.sroa.gep, align 8
  %.not = icmp eq ptr %41, %42
  br i1 %.not, label %50, label %43

43:                                               ; preds = %40
  %44 = getelementptr inbounds i8, ptr %10, i64 8
  %45 = getelementptr inbounds i8, ptr %10, i64 16
  store i64 0, ptr %45, align 8
  store i32 33619968, ptr %10, align 8
  store ptr %2, ptr %44, align 8
  invoke void @_ZNK2cv3Mat9convertToERKNS_12_OutputArrayEidd(ptr noundef nonnull align 8 dereferenceable(96) %19, ptr noundef nonnull align 8 dereferenceable(24) %10, i32 noundef %3, double noundef 1.000000e+00, double noundef 0.000000e+00)
          to label %50 unwind label %48

46:                                               ; preds = %18
  %47 = landingpad { ptr, i32 }
          cleanup
  br label %51

48:                                               ; preds = %43
  %49 = landingpad { ptr, i32 }
          cleanup
  br label %51

50:                                               ; preds = %43, %40
  call void @_ZN2cv3MatD1Ev(ptr noundef nonnull align 8 dereferenceable(96) %5) #21
  ret void

51:                                               ; preds = %46, %48
  %.pn25 = phi { ptr, i32 } [ %49, %48 ], [ %47, %46 ]
  call void @_ZN2cv3MatD1Ev(ptr noundef nonnull align 8 dereferenceable(96) %5) #21
  resume { ptr, i32 } %.pn25
}